Certificate:
    Data:
        Version: 3 (0x2)
        Serial Number: 4102 (0x1006)
    Signature Algorithm: sha384WithRSAEncryption
        Issuer: C=GB, L=Cambridge, CN=BTC Pinata Team/emailAddress=ocaml-tls@h3q.com
        Validity
            Not Before: Feb  7 18:34:19 2015 GMT
            Not After : Mar 29 18:34:19 2015 GMT
        Subject: C=GB, CN=central service
        Subject Public Key Info:
            Public Key Algorithm: rsaEncryption
                Public-Key: (2048 bit)
                Modulus:
                    00:c1:cc:a5:53:66:0f:82:cb:66:bb:20:9b:bf:46:
                    de:1c:c6:d7:ae:97:81:ee:1c:ac:e4:b5:00:ce:5b:
                    e1:92:d2:d3:8c:42:10:e5:08:77:d5:20:c3:00:32:
                    1c:f1:41:0d:da:ea:61:e3:c2:4b:a4:b8:a9:23:25:
                    f4:96:63:c7:fb:bb:96:a6:ff:e5:50:f3:51:08:b7:
                    63:b8:92:93:83:56:da:05:4e:8c:22:53:e0:26:9c:
                    48:98:ad:f5:e5:1e:c2:39:01:df:e2:68:aa:e5:2c:
                    f0:e8:36:c9:b4:d9:ba:ba:60:ee:f5:74:22:90:92:
                    1c:89:78:a2:60:04:4e:fc:33:b7:98:96:f5:eb:4b:
                    3a:f8:6e:ce:d3:42:33:50:fc:6b:77:56:9b:0a:47:
                    dc:34:88:ad:b6:a0:fb:64:70:8b:c4:61:ca:c8:13:
                    89:3f:de:bb:68:45:62:cc:8c:9d:bc:e1:98:27:ba:
                    da:f5:00:5b:d2:28:b9:ee:4c:72:85:27:db:5d:39:
                    09:33:5c:16:a3:af:59:07:61:9b:b2:04:e8:ed:f1:
                    3d:97:fc:93:64:9f:c5:8c:f6:35:84:8b:f2:91:11:
                    01:12:49:93:07:c3:7e:c8:6f:72:7b:db:ab:21:b2:
                    f7:28:ca:c1:87:09:42:7a:ec:19:27:d1:f0:6d:b7:
                    eb:23
                Exponent: 65537 (0x10001)
        X509v3 extensions:
            X509v3 Basic Constraints: critical
                CA:FALSE
            X509v3 Key Usage: 
                Digital Signature
            X509v3 Subject Key Identifier: 
                CC:C7:74:73:B6:2B:7E:FB:4B:29:FB:98:C9:60:3E:2B:5E:10:9E:85
            X509v3 Authority Key Identifier: 
                keyid:F5:CD:CF:CC:4E:A5:23:44:77:2E:CC:AC:DE:CF:1B:5F:3F:19:C8:85

            X509v3 Extended Key Usage: 
                TLS Web Client Authentication
    Signature Algorithm: sha384WithRSAEncryption
         28:6d:29:51:bf:43:55:bc:fe:5c:c9:eb:c7:28:77:0f:dd:d4:
         5c:fe:b0:db:71:ce:33:b9:23:14:27:f4:59:3f:b7:8e:24:2d:
         ac:63:19:75:de:c9:3c:57:75:8f:67:33:29:96:dd:94:0a:07:
         2e:5b:85:7a:27:2f:4e:04:65:71:32:9f:6f:bb:ff:c1:ac:95:
         56:29:18:fd:f7:26:80:fa:0c:91:00:a8:58:86:ed:92:f2:47:
         5d:d9:1a:28:ad:fc:04:73:60:34:32:27:09:83:0c:33:77:d4:
         2c:c6:99:15:f4:a2:0f:52:b8:d2:37:9d:06:26:71:5c:ad:a4:
         83:90:74:28:dc:b0:6d:e7:02:16:5f:47:1e:6a:9b:95:cc:40:
         a2:3e:8c:78:f6:b3:e3:f9:70:d5:13:56:8a:94:42:c9:76:03:
         3d:7b:6a:71:d7:71:47:52:de:4b:bf:6e:e8:af:0c:c5:e1:61:
         bf:26:5e:0e:e0:36:98:36:ca:a0:71:32:9e:26:36:a0:5e:c4:
         5a:5a:31:1f:29:61:59:ab:cb:db:83:ce:38:19:87:00:e9:7f:
         1b:9b:d3:5b:7c:ed:2f:b5:00:e7:77:f0:3d:69:a3:44:76:04:
         5d:85:f7:00:f6:57:99:39:93:4f:c0:32:98:9e:d7:94:ee:5c:
         ad:7b:1a:84:31:c2:55:a3:5d:13:1b:dc:90:a0:27:fd:c6:53:
         5f:4f:40:49:5e:75:6d:f1:6f:76:70:e3:dd:3d:b8:07:b4:d8:
         da:38:15:8b:aa:8f:cb:ac:e9:f7:1a:fe:64:13:6f:39:47:9c:
         1a:6a:3b:08:d2:81:c6:01:3d:4e:01:0f:f8:d6:d7:ba:eb:1b:
         a2:f1:36:96:3d:56:af:31:3e:1d:bd:51:b4:45:f0:2f:fc:f0:
         a8:a7:cf:32:ef:58:a3:1c:a7:7a:c2:83:57:9a:b0:38:0d:41:
         cf:3b:db:f2:c0:74:3f:17:02:47:57:3a:a1:0f:bb:ee:d6:e4:
         1d:25:ec:4a:e9:e7:bb:8b:87:8e:45:a1:c9:a7:af:37:e1:59:
         14:07:94:cc:6f:a8:aa:8c:13:13:60:b9:e6:f9:b0:b2:e4:00:
         32:ec:f6:1d:08:b6:df:ef:83:84:f6:20:4f:b1:83:bf:41:b0:
         d7:bc:db:14:ee:50:94:34:8a:75:8c:8b:13:e7:dc:52:ee:87:
         cf:b4:ff:10:4f:fd:de:88:b1:38:7f:48:e3:af:47:5e:d7:4b:
         29:f0:1b:cb:7e:a6:70:47:f1:92:db:00:01:1a:ff:4b:ef:be:
         29:7b:15:9e:c4:44:eb:ca:35:99:58:48:35:c7:57:ca:07:b6:
         9d:a1:ee:fc:4f:44:0d:1d
-----BEGIN CERTIFICATE-----
MIIEcjCCAlqgAwIBAgICEAYwDQYJKoZIhvcNAQEMBQAwXTELMAkGA1UEBhMCR0Ix
EjAQBgNVBAcMCUNhbWJyaWRnZTEYMBYGA1UEAwwPQlRDIFBpbmF0YSBUZWFtMSAw
HgYJKoZIhvcNAQkBFhFvY2FtbC10bHNAaDNxLmNvbTAeFw0xNTAyMDcxODM0MTla
Fw0xNTAzMjkxODM0MTlaMCcxCzAJBgNVBAYTAkdCMRgwFgYDVQQDDA9jZW50cmFs
IHNlcnZpY2UwggEiMA0GCSqGSIb3DQEBAQUAA4IBDwAwggEKAoIBAQDBzKVTZg+C
y2a7IJu/Rt4cxteul4HuHKzktQDOW+GS0tOMQhDlCHfVIMMAMhzxQQ3a6mHjwkuk
uKkjJfSWY8f7u5am/+VQ81EIt2O4kpODVtoFTowiU+AmnEiYrfXlHsI5Ad/iaKrl
LPDoNsm02bq6YO71dCKQkhyJeKJgBE78M7eYlvXrSzr4bs7TQjNQ/Gt3VpsKR9w0
iK22oPtkcIvEYcrIE4k/3rtoRWLMjJ284Zgnutr1AFvSKLnuTHKFJ9tdOQkzXBaj
r1kHYZuyBOjt8T2X/JNkn8WM9jWEi/KREQESSZMHw37Ib3J726shsvcoysGHCUJ6
7Bkn0fBtt+sjAgMBAAGjcjBwMAwGA1UdEwEB/wQCMAAwCwYDVR0PBAQDAgeAMB0G
A1UdDgQWBBTMx3Rztit++0sp+5jJYD4rXhCehTAfBgNVHSMEGDAWgBT1zc/MTqUj
RHcuzKzezxtfPxnIhTATBgNVHSUEDDAKBggrBgEFBQcDAjANBgkqhkiG9w0BAQwF
AAOCAgEAKG0pUb9DVbz+XMnrxyh3D93UXP6w23HOM7kjFCf0WT+3jiQtrGMZdd7J
PFd1j2czKZbdlAoHLluFeicvTgRlcTKfb7v/wayVVikY/fcmgPoMkQCoWIbtkvJH
XdkaKK38BHNgNDInCYMMM3fULMaZFfSiD1K40jedBiZxXK2kg5B0KNywbecCFl9H
HmqblcxAoj6MePaz4/lw1RNWipRCyXYDPXtqcddxR1LeS79u6K8MxeFhvyZeDuA2
mDbKoHEyniY2oF7EWloxHylhWavL24POOBmHAOl/G5vTW3ztL7UA53fwPWmjRHYE
XYX3APZXmTmTT8AymJ7XlO5crXsahDHCVaNdExvckKAn/cZTX09ASV51bfFvdnDj
3T24B7TY2jgVi6qPy6zp9xr+ZBNvOUecGmo7CNKBxgE9TgEP+NbXuusbovE2lj1W
rzE+Hb1RtEXwL/zwqKfPMu9YoxynesKDV5qwOA1Bzzvb8sB0PxcCR1c6oQ+77tbk
HSXsSunnu4uHjkWhyaevN+FZFAeUzG+oqowTE2C55vmwsuQAMuz2HQi23++DhPYg
T7GDv0Gw17zbFO5QlDSKdYyLE+fcUu6Hz7T/EE/93oixOH9I469HXtdLKfAby36m
cEfxktsAARr/S+++KXsVnsRE68o1mVhINcdXyge2naHu/E9EDR0=
-----END CERTIFICATE-----
