Certificate:
    Data:
        Version: 3 (0x2)
        Serial Number: 4103 (0x1007)
    Signature Algorithm: sha384WithRSAEncryption
        Issuer: C=GB, L=Cambridge, CN=BTC Pinata Team/emailAddress=ocaml-tls@h3q.com
        Validity
            Not Before: Feb  7 18:37:18 2015 GMT
            Not After : Mar 29 18:37:18 2015 GMT
        Subject: C=SE, CN=tls services
        Subject Public Key Info:
            Public Key Algorithm: rsaEncryption
                Public-Key: (2048 bit)
                Modulus:
                    00:ca:09:eb:65:90:65:43:df:35:68:20:7d:a9:03:
                    54:79:ed:cc:f2:96:8d:92:5d:02:ea:9c:e2:f9:e3:
                    cd:81:c1:eb:7a:90:73:6e:e8:32:95:62:d0:53:ac:
                    63:1a:d7:a0:a3:b9:88:19:9b:6c:aa:61:97:e7:1e:
                    ca:99:5e:d6:a7:7d:1e:ee:07:40:8b:75:a1:2e:47:
                    0c:13:ac:fa:1e:50:4a:0b:2b:79:4b:ea:3d:28:10:
                    d1:1c:50:57:40:50:30:f2:fb:f2:49:46:b6:ea:a5:
                    3a:bd:ab:53:f9:aa:39:90:f1:0e:ca:80:10:f4:5d:
                    82:d6:46:df:dd:3e:45:41:84:aa:e7:8f:0f:f8:79:
                    63:c6:0b:7e:60:35:23:26:42:c7:40:45:b9:25:f8:
                    23:10:ec:c7:93:db:42:b2:ce:66:01:03:c4:e9:67:
                    b7:a2:ab:a6:08:8e:10:60:b2:b5:9a:00:29:1a:53:
                    03:60:b4:42:e8:5b:4f:20:4f:51:1e:8e:18:a8:43:
                    46:eb:9b:51:56:01:04:c0:3b:ac:f8:80:af:7e:ac:
                    94:26:e6:04:e2:2f:e3:0f:0e:e4:6f:92:77:61:ca:
                    18:62:76:50:b0:bf:fa:e4:3e:f7:b4:60:89:16:77:
                    ce:d9:c4:4a:4a:68:1e:d6:dc:f3:ff:7b:d6:de:45:
                    84:a3
                Exponent: 65537 (0x10001)
        X509v3 extensions:
            X509v3 Basic Constraints: critical
                CA:FALSE
            X509v3 Key Usage: 
                Digital Signature, Non Repudiation, Key Encipherment
            X509v3 Subject Key Identifier: 
                A1:AF:CE:C8:40:77:48:01:1B:68:9E:26:CC:4E:93:94:AE:70:2C:1D
            X509v3 Authority Key Identifier: 
                keyid:F5:CD:CF:CC:4E:A5:23:44:77:2E:CC:AC:DE:CF:1B:5F:3F:19:C8:85

            X509v3 Extended Key Usage: 
                TLS Web Server Authentication, Time Stamping
    Signature Algorithm: sha384WithRSAEncryption
         8c:ce:b0:a5:fd:09:77:7d:ce:77:0f:71:30:3e:a6:4d:2c:77:
         b8:de:e2:bd:59:eb:b8:33:60:b2:76:13:16:5a:f8:8e:51:71:
         82:a1:53:ca:13:1d:a7:65:23:83:e4:1e:e7:78:fa:d0:ff:0c:
         0a:d5:12:de:7d:97:c0:b0:cb:00:f0:07:ad:13:a5:99:d4:6f:
         c2:57:b9:90:90:b6:df:bb:1c:27:50:24:cb:31:e9:69:21:78:
         76:7a:e4:cf:55:0e:6c:9c:0c:48:ad:3f:0d:c1:38:e9:a2:6a:
         44:11:49:e1:a2:a5:8c:b2:db:b0:97:1e:7a:62:24:e8:18:d3:
         27:87:b8:b6:94:f7:e0:8c:62:f1:eb:73:d2:fd:c1:23:08:ec:
         ed:db:9d:64:b7:c3:05:2d:f9:50:b1:cd:3c:f3:e6:96:d1:f2:
         43:d7:b8:34:b8:9b:5a:7e:19:7f:1b:6d:4a:ec:84:9a:69:08:
         58:bb:f0:0e:c3:d1:c3:1e:70:d7:fd:45:87:2f:d7:a0:6d:f3:
         ed:57:63:3a:dc:d7:47:10:77:f1:5b:f5:77:ab:16:12:ad:0e:
         3e:db:3a:b3:78:4c:97:e8:7d:40:01:d8:9a:d0:91:32:63:54:
         d4:b4:09:d7:a0:fb:c7:75:09:8e:8c:3a:bd:3c:50:60:3a:11:
         6c:de:71:a3:fa:f9:0e:75:63:a8:5f:f1:c2:dc:f1:2f:84:ca:
         b0:1c:73:73:9c:3b:0a:dc:80:72:69:51:9d:b0:e3:a6:6b:7e:
         f2:e6:40:54:df:62:bc:ec:9f:2d:dc:ac:e1:14:ba:93:54:38:
         04:0b:91:59:d6:ad:82:4d:f1:66:fd:ea:36:51:ef:6b:94:9d:
         a3:3e:82:22:ca:c0:54:6f:6d:12:6a:82:b8:54:23:ef:75:16:
         4c:57:64:b6:25:46:03:f6:a7:6a:93:5f:4a:26:b0:ad:85:c6:
         68:c3:90:ad:51:46:5a:02:f3:89:5a:27:70:6a:e4:54:38:e2:
         c3:e3:23:e2:3d:25:f4:ff:ef:07:9e:06:af:b5:56:c1:e2:a7:
         42:68:ea:c4:d7:2a:03:8c:d5:71:14:e1:17:84:e9:5e:4f:a1:
         13:28:a2:bd:74:16:51:a3:4e:37:96:63:bc:fa:a8:38:e3:57:
         74:93:31:41:8b:1d:ef:c0:61:2a:cf:1b:ed:a1:61:94:fd:28:
         e5:29:f2:ee:c5:3b:86:76:e5:06:47:3d:8f:7f:2b:bd:59:91:
         f5:b1:30:f7:01:6f:dd:7b:51:b0:2f:30:33:23:cb:a6:c7:41:
         b4:d9:06:64:b5:57:45:1d:bd:7f:30:cb:2e:c3:88:27:4e:ed:
         b8:59:58:b5:af:62:f4:dc
-----BEGIN CERTIFICATE-----
MIIEeTCCAmGgAwIBAgICEAcwDQYJKoZIhvcNAQEMBQAwXTELMAkGA1UEBhMCR0Ix
EjAQBgNVBAcMCUNhbWJyaWRnZTEYMBYGA1UEAwwPQlRDIFBpbmF0YSBUZWFtMSAw
HgYJKoZIhvcNAQkBFhFvY2FtbC10bHNAaDNxLmNvbTAeFw0xNTAyMDcxODM3MTha
Fw0xNTAzMjkxODM3MThaMCQxCzAJBgNVBAYTAlNFMRUwEwYDVQQDDAx0bHMgc2Vy
dmljZXMwggEiMA0GCSqGSIb3DQEBAQUAA4IBDwAwggEKAoIBAQDKCetlkGVD3zVo
IH2pA1R57czylo2SXQLqnOL5482Bwet6kHNu6DKVYtBTrGMa16CjuYgZm2yqYZfn
HsqZXtanfR7uB0CLdaEuRwwTrPoeUEoLK3lL6j0oENEcUFdAUDDy+/JJRrbqpTq9
q1P5qjmQ8Q7KgBD0XYLWRt/dPkVBhKrnjw/4eWPGC35gNSMmQsdARbkl+CMQ7MeT
20KyzmYBA8TpZ7eiq6YIjhBgsrWaACkaUwNgtELoW08gT1EejhioQ0brm1FWAQTA
O6z4gK9+rJQm5gTiL+MPDuRvkndhyhhidlCwv/rkPve0YIkWd87ZxEpKaB7W3PP/
e9beRYSjAgMBAAGjfDB6MAwGA1UdEwEB/wQCMAAwCwYDVR0PBAQDAgXgMB0GA1Ud
DgQWBBShr87IQHdIARtonibMTpOUrnAsHTAfBgNVHSMEGDAWgBT1zc/MTqUjRHcu
zKzezxtfPxnIhTAdBgNVHSUEFjAUBggrBgEFBQcDAQYIKwYBBQUHAwgwDQYJKoZI
hvcNAQEMBQADggIBAIzOsKX9CXd9zncPcTA+pk0sd7je4r1Z67gzYLJ2ExZa+I5R
cYKhU8oTHadlI4PkHud4+tD/DArVEt59l8CwywDwB60TpZnUb8JXuZCQtt+7HCdQ
JMsx6WkheHZ65M9VDmycDEitPw3BOOmiakQRSeGipYyy27CXHnpiJOgY0yeHuLaU
9+CMYvHrc9L9wSMI7O3bnWS3wwUt+VCxzTzz5pbR8kPXuDS4m1p+GX8bbUrshJpp
CFi78A7D0cMecNf9RYcv16Bt8+1XYzrc10cQd/Fb9XerFhKtDj7bOrN4TJfofUAB
2JrQkTJjVNS0Cdeg+8d1CY6MOr08UGA6EWzecaP6+Q51Y6hf8cLc8S+EyrAcc3Oc
OwrcgHJpUZ2w46ZrfvLmQFTfYrzsny3crOEUupNUOAQLkVnWrYJN8Wb96jZR72uU
naM+giLKwFRvbRJqgrhUI+91FkxXZLYlRgP2p2qTX0omsK2FxmjDkK1RRloC84la
J3Bq5FQ44sPjI+I9JfT/7weeBq+1VsHip0Jo6sTXKgOM1XEU4ReE6V5PoRMoor10
FlGjTjeWY7z6qDjjV3STMUGLHe/AYSrPG+2hYZT9KOUp8u7FO4Z25QZHPY9/K71Z
kfWxMPcBb917UbAvMDMjy6bHQbTZBmS1V0UdvX8wyy7DiCdO7bhZWLWvYvTc
-----END CERTIFICATE-----
