Certificate:
    Data:
        Version: 3 (0x2)
        Serial Number: 4101 (0x1005)
    Signature Algorithm: sha384WithRSAEncryption
        Issuer: C=GB, L=Cambridge, CN=BTC Pinata Team/emailAddress=ocaml-tls@h3q.com
        Validity
            Not Before: Feb  7 18:31:21 2015 GMT
            Not After : Mar 29 18:31:21 2015 GMT
        Subject: C=SE, CN=ownme.ipredator.se
        Subject Public Key Info:
            Public Key Algorithm: rsaEncryption
                Public-Key: (2048 bit)
                Modulus:
                    00:d6:8f:ee:7d:55:28:4f:06:49:5b:e3:5c:e3:c8:
                    ae:bd:ec:32:0c:3a:b6:0d:c5:45:b3:38:a5:2f:95:
                    cb:48:8a:a2:16:36:21:1e:e6:56:29:35:04:9a:53:
                    13:27:ef:3e:d6:40:4d:80:84:15:9f:25:9a:59:ee:
                    09:e6:9b:35:8d:7a:ce:84:78:e8:1b:7a:6c:c4:6d:
                    3c:b0:9f:00:12:86:76:09:4e:cb:f8:27:e3:ac:33:
                    f3:1f:d7:40:65:5b:02:26:f5:c4:17:79:f6:78:d7:
                    79:7d:ef:8e:57:6b:c9:3d:6d:81:66:47:2e:67:d8:
                    d4:ea:de:8a:eb:8a:a9:01:28:4d:0c:f0:b9:81:17:
                    11:3d:04:d2:63:d2:67:54:0d:f9:90:f4:f3:46:60:
                    f8:ea:73:f6:e8:c4:e7:b3:01:0b:c1:2b:e9:41:4c:
                    78:7b:97:74:1f:a5:b3:b8:e2:1b:2d:71:f9:b2:04:
                    75:80:05:85:d3:ad:a6:3c:b0:d4:a6:6c:70:74:99:
                    02:f2:d7:32:ed:99:3d:e8:65:f0:23:09:93:da:c1:
                    6b:7f:96:6d:03:44:56:24:a5:d7:0d:ee:24:b2:42:
                    91:b5:f2:df:41:41:f6:2b:2a:fa:f1:8e:cf:ba:53:
                    2b:3b:b8:9b:f3:c2:33:cc:5a:d0:f6:ed:f2:b4:11:
                    f0:97
                Exponent: 65537 (0x10001)
        X509v3 extensions:
            X509v3 Basic Constraints: critical
                CA:FALSE
            X509v3 Key Usage: 
                Digital Signature, Non Repudiation, Key Encipherment
            X509v3 Subject Key Identifier: 
                16:FC:FE:27:39:B1:11:84:64:76:F5:16:03:C9:E6:9A:C8:FE:44:B6
            X509v3 Authority Key Identifier: 
                keyid:F5:CD:CF:CC:4E:A5:23:44:77:2E:CC:AC:DE:CF:1B:5F:3F:19:C8:85

            X509v3 Extended Key Usage: 
                TLS Web Server Authentication
            X509v3 Subject Alternative Name: 
                DNS:ownme.ipredator.se
    Signature Algorithm: sha384WithRSAEncryption
         9a:2f:47:f1:e1:e1:2a:a7:77:a1:14:64:7f:3c:7d:e8:2f:5e:
         ae:30:37:72:e4:e2:ac:9e:5e:b3:52:9a:25:da:2a:23:1b:0d:
         2d:27:5f:51:2a:ba:0f:81:fe:15:40:88:e5:b2:f7:03:31:61:
         77:bc:b0:6e:58:55:24:ba:61:e0:97:05:6f:d5:19:72:ca:f1:
         e7:72:86:1b:21:81:d9:c6:6f:be:3d:b2:4d:cd:00:98:0b:74:
         d6:c9:29:2a:aa:5c:cc:b5:20:a7:3e:98:f0:03:c4:70:c5:23:
         4c:62:ea:ed:44:dd:c8:99:a8:b1:25:bf:14:1c:03:d2:c8:2d:
         94:b1:85:0c:cd:d4:3b:44:1f:45:68:95:01:34:c9:48:4b:f6:
         4d:4d:7a:16:3e:87:73:8a:9b:18:e2:ba:d5:72:96:02:9a:4f:
         1e:c3:23:2a:5e:b6:45:e5:4d:3a:fd:c4:75:fc:23:ea:2e:c6:
         6a:bf:c2:a4:f8:4c:f8:21:77:29:46:8d:65:67:05:2b:2b:af:
         5f:cb:a7:6f:1c:fd:8a:fb:f7:09:8e:d8:6c:d1:dd:83:1d:eb:
         1e:c1:43:7c:13:4d:a0:6e:d3:05:4e:e9:be:f7:75:4b:4e:a8:
         f8:74:3e:a5:74:ed:60:8e:79:8c:f1:4e:07:76:cf:c8:61:44:
         9e:90:94:a1:aa:b9:a9:5c:30:d3:77:0f:03:87:57:0c:ef:d5:
         d1:49:ea:d1:4b:31:17:9d:0a:87:61:59:c3:ea:6a:7a:9f:d1:
         5e:32:15:e7:ba:c8:e7:86:94:c0:6d:2c:fc:cf:63:07:16:29:
         03:56:0b:5a:2f:3a:2a:c1:35:b4:d5:b4:0d:d2:cf:09:6e:e2:
         c9:81:46:d5:8e:18:69:88:8b:80:18:01:5a:88:d0:33:ba:c2:
         11:42:83:98:81:cb:ea:61:80:90:71:e2:01:f9:6a:93:37:04:
         4f:3e:5f:a9:70:93:65:d5:62:4f:ff:4b:1b:5b:04:16:84:32:
         5c:77:3c:94:d8:fd:dc:1b:d5:98:0b:33:51:76:5f:4d:84:a7:
         2e:68:87:39:7c:e4:bd:33:e7:a1:74:94:66:29:32:cd:f2:3d:
         40:d7:ff:d2:e1:93:50:7f:9d:91:67:a7:d1:6c:65:1e:2b:02:
         a4:a4:a4:8a:76:c9:7c:00:dd:d8:fe:a7:b6:b3:6e:51:58:71:
         14:ed:61:d4:ad:f5:ce:c9:00:dd:8b:96:4e:a4:6f:3d:d5:5a:
         2d:fa:33:f4:32:d2:23:73:7d:fb:cb:66:41:c7:cd:1e:6c:0b:
         38:67:58:40:cf:1e:da:6a:64:16:4d:2b:08:68:bd:4b:aa:89:
         49:c4:b2:cf:ac:cb:85:dc
-----BEGIN CERTIFICATE-----
MIIEljCCAn6gAwIBAgICEAUwDQYJKoZIhvcNAQEMBQAwXTELMAkGA1UEBhMCR0Ix
EjAQBgNVBAcMCUNhbWJyaWRnZTEYMBYGA1UEAwwPQlRDIFBpbmF0YSBUZWFtMSAw
HgYJKoZIhvcNAQkBFhFvY2FtbC10bHNAaDNxLmNvbTAeFw0xNTAyMDcxODMxMjFa
Fw0xNTAzMjkxODMxMjFaMCoxCzAJBgNVBAYTAlNFMRswGQYDVQQDDBJvd25tZS5p
cHJlZGF0b3Iuc2UwggEiMA0GCSqGSIb3DQEBAQUAA4IBDwAwggEKAoIBAQDWj+59
VShPBklb41zjyK697DIMOrYNxUWzOKUvlctIiqIWNiEe5lYpNQSaUxMn7z7WQE2A
hBWfJZpZ7gnmmzWNes6EeOgbemzEbTywnwAShnYJTsv4J+OsM/Mf10BlWwIm9cQX
efZ413l9745Xa8k9bYFmRy5n2NTq3orriqkBKE0M8LmBFxE9BNJj0mdUDfmQ9PNG
YPjqc/boxOezAQvBK+lBTHh7l3QfpbO44hstcfmyBHWABYXTraY8sNSmbHB0mQLy
1zLtmT3oZfAjCZPawWt/lm0DRFYkpdcN7iSyQpG18t9BQfYrKvrxjs+6Uys7uJvz
wjPMWtD27fK0EfCXAgMBAAGjgZIwgY8wDAYDVR0TAQH/BAIwADALBgNVHQ8EBAMC
BeAwHQYDVR0OBBYEFBb8/ic5sRGEZHb1FgPJ5prI/kS2MB8GA1UdIwQYMBaAFPXN
z8xOpSNEdy7MrN7PG18/GciFMBMGA1UdJQQMMAoGCCsGAQUFBwMBMB0GA1UdEQQW
MBSCEm93bm1lLmlwcmVkYXRvci5zZTANBgkqhkiG9w0BAQwFAAOCAgEAmi9H8eHh
Kqd3oRRkfzx96C9erjA3cuTirJ5es1KaJdoqIxsNLSdfUSq6D4H+FUCI5bL3AzFh
d7ywblhVJLph4JcFb9UZcsrx53KGGyGB2cZvvj2yTc0AmAt01skpKqpczLUgpz6Y
8APEcMUjTGLq7UTdyJmosSW/FBwD0sgtlLGFDM3UO0QfRWiVATTJSEv2TU16Fj6H
c4qbGOK61XKWAppPHsMjKl62ReVNOv3Edfwj6i7Gar/CpPhM+CF3KUaNZWcFKyuv
X8unbxz9ivv3CY7YbNHdgx3rHsFDfBNNoG7TBU7pvvd1S06o+HQ+pXTtYI55jPFO
B3bPyGFEnpCUoaq5qVww03cPA4dXDO/V0Unq0UsxF50Kh2FZw+pqep/RXjIV57rI
54aUwG0s/M9jBxYpA1YLWi86KsE1tNW0DdLPCW7iyYFG1Y4YaYiLgBgBWojQM7rC
EUKDmIHL6mGAkHHiAflqkzcETz5fqXCTZdViT/9LG1sEFoQyXHc8lNj93BvVmAsz
UXZfTYSnLmiHOXzkvTPnoXSUZikyzfI9QNf/0uGTUH+dkWen0WxlHisCpKSkinbJ
fADd2P6ntrNuUVhxFO1h1K31zskA3YuWTqRvPdVaLfoz9DLSI3N9+8tmQcfNHmwL
OGdYQM8e2mpkFk0rCGi9S6qJScSyz6zLhdw=
-----END CERTIFICATE-----
